; Function Attrs: inlinehint mustprogress nounwind optsize uwtable
define internal noundef nonnull ptr @"_ZZN8nanobind6detail11func_createILb0ELb1EZL26nanobind_init_test_stl_extRNS_7module_EE4$_53vJRSt7variantIJP8CopyableiEEEJLm0EEJNS_5scopeENS_4nameENS_3argEEEEP7_objectOT1_PFT2_DpT3_ESt16integer_sequenceImJXspT4_EEEDpRKT5_ENUlPvPSE_PhNS_9rv_policyEPNS0_12cleanup_listEE_8__invokeESS_ST_SU_SV_SX_"(ptr readnone captures(none) %0, ptr noundef readonly captures(none) %1, ptr noundef readonly captures(none) %2, i32 %3, ptr noundef %4) #18 align 2 personality ptr @__gxx_personality_v0 {
  %6 = alloca %"struct.nanobind::detail::tuple.717", align 8
  call void @llvm.lifetime.start.p0(i64 16, ptr nonnull %6) #28
  store ptr null, ptr %6, align 8, !tbaa !445
  %7 = getelementptr inbounds nuw i8, ptr %6, i64 8
  store i8 0, ptr %7, align 8, !tbaa !447
  %8 = load ptr, ptr %1, align 8, !tbaa !131
  %9 = load i8, ptr %2, align 1, !tbaa !44
  %10 = call noundef zeroext i1 @_ZN8nanobind6detail11type_casterISt7variantIJP8CopyableiEEiE11from_pythonENS_6handleEhPNS0_12cleanup_listE(ptr noundef nonnull align 8 dereferenceable(16) %6, ptr %8, i8 noundef zeroext %9, ptr noundef %4) #27
  br i1 %10, label %11, label %"_ZZN8nanobind6detail11func_createILb0ELb1EZL26nanobind_init_test_stl_extRNS_7module_EE4$_53vJRSt7variantIJP8CopyableiEEEJLm0EEJNS_5scopeENS_4nameENS_3argEEEEP7_objectOT1_PFT2_DpT3_ESt16integer_sequenceImJXspT4_EEEDpRKT5_ENKUlPvPSE_PhNS_9rv_policyEPNS0_12cleanup_listEE_clESS_ST_SU_SV_SX_.exit"

11:                                               ; preds = %5
  %12 = load i64, ptr @_Py_NoneStruct, align 8, !tbaa !69
  %13 = add nsw i64 %12, 1
  store i64 %13, ptr @_Py_NoneStruct, align 8, !tbaa !69
  br label %"_ZZN8nanobind6detail11func_createILb0ELb1EZL26nanobind_init_test_stl_extRNS_7module_EE4$_53vJRSt7variantIJP8CopyableiEEEJLm0EEJNS_5scopeENS_4nameENS_3argEEEEP7_objectOT1_PFT2_DpT3_ESt16integer_sequenceImJXspT4_EEEDpRKT5_ENKUlPvPSE_PhNS_9rv_policyEPNS0_12cleanup_listEE_clESS_ST_SU_SV_SX_.exit"

"_ZZN8nanobind6detail11func_createILb0ELb1EZL26nanobind_init_test_stl_extRNS_7module_EE4$_53vJRSt7variantIJP8CopyableiEEEJLm0EEJNS_5scopeENS_4nameENS_3argEEEEP7_objectOT1_PFT2_DpT3_ESt16integer_sequenceImJXspT4_EEEDpRKT5_ENKUlPvPSE_PhNS_9rv_policyEPNS0_12cleanup_listEE_clESS_ST_SU_SV_SX_.exit": ; preds = %5, %11
  %.0.i = phi ptr [ @_Py_NoneStruct, %11 ], [ inttoptr (i64 1 to ptr), %5 ]
  call void @llvm.lifetime.end.p0(i64 16, ptr nonnull %6) #28
  ret ptr %.0.i
}